; Function Attrs: mustprogress nounwind uwtable
define internal void @_ZN7testing8internal30ValuesInIteratorRangeGeneratorIN12_GLOBAL__N_15ParamEE8IteratorD2Ev(ptr noundef nonnull align 8 captures(none) dereferenceable(32) initializes((0, 8)) %0) unnamed_addr #4 align 2 personality ptr @__gxx_personality_v0 {
  store ptr getelementptr inbounds nuw inrange(-16, 56) (i8, ptr @_ZTVN7testing8internal30ValuesInIteratorRangeGeneratorIN12_GLOBAL__N_15ParamEE8IteratorE, i64 16), ptr %0, align 8, !tbaa !28
  %2 = getelementptr inbounds nuw i8, ptr %0, i64 24
  %3 = load ptr, ptr %2, align 8, !tbaa !81
  %.not.i = icmp eq ptr %3, null
  br i1 %.not.i, label %_ZNSt10unique_ptrIKN12_GLOBAL__N_15ParamESt14default_deleteIS2_EED2Ev.exit, label %_ZNKSt14default_deleteIKN12_GLOBAL__N_15ParamEEclEPS2_.exit.i

_ZNKSt14default_deleteIKN12_GLOBAL__N_15ParamEEclEPS2_.exit.i: ; preds = %1
  tail call void @_ZdlPvm(ptr noundef nonnull %3, i64 noundef 32) #38
  br label %_ZNSt10unique_ptrIKN12_GLOBAL__N_15ParamESt14default_deleteIS2_EED2Ev.exit

_ZNSt10unique_ptrIKN12_GLOBAL__N_15ParamESt14default_deleteIS2_EED2Ev.exit: ; preds = %1, %_ZNKSt14default_deleteIKN12_GLOBAL__N_15ParamEEclEPS2_.exit.i
  store ptr null, ptr %2, align 8, !tbaa !81
  ret void
}